target datalayout = "e-m:e-p270:32:32-p271:32:32-p272:64:64-i64:64-i128:128-f80:128-n8:16:32:64-S128"
target triple = "x86_64-pc-linux-gnu"

%struct.rb_code_location_struct = type { %struct.rb_code_position_struct, %struct.rb_code_position_struct }
%struct.rb_code_position_struct = type { i32, i32 }
%struct.rb_iseq_constant_body = type { i32, i32, ptr, %struct.anon.16, %struct.rb_iseq_location_struct, %struct.iseq_insn_info, ptr, ptr, ptr, ptr, ptr, ptr, %struct.anon.17, i32, i32, i32, i32, i32, i32, i32, i32, i8, %union.anon.18, ptr, ptr, ptr, i64, ptr, i64, ptr, i64 }
%struct.anon.16 = type { %struct.anon, i32, i32, i32, i32, i32, i32, i32, ptr, ptr }
%struct.anon = type { i16, [2 x i8] }
%struct.rb_iseq_location_struct = type { i64, i64, i64, i32, i32, %struct.rb_code_location_struct }
%struct.iseq_insn_info = type { ptr, ptr, i32, ptr }
%struct.anon.17 = type { i64, i64, i64, i64, ptr }
%union.anon.18 = type { ptr }
%struct.succ_index_table = type { [6 x i64], [0 x %struct.succ_dict_block] }
%struct.succ_dict_block = type { i32, i64, [8 x i64] }

; Function Attrs: nounwind sspstrong uwtable
define internal ptr @succ_index_table_invert(i32 noundef %0, ptr noundef %1, i32 noundef %2) #0 {
  %4 = alloca i32, align 4
  %5 = alloca ptr, align 8
  %6 = alloca i32, align 4
  %7 = alloca i32, align 4
  %8 = alloca i32, align 4
  %9 = alloca ptr, align 8
  %10 = alloca ptr, align 8
  %11 = alloca i32, align 4
  %12 = alloca i32, align 4
  %13 = alloca i32, align 4
  %14 = alloca i32, align 4
  %15 = alloca i32, align 4
  store i32 %0, ptr %4, align 4, !tbaa !56
  store ptr %1, ptr %5, align 8, !tbaa !140
  store i32 %2, ptr %6, align 4, !tbaa !56
  call void @llvm.lifetime.start.p0(i64 4, ptr %7) #24
  %16 = load i32, ptr %4, align 4, !tbaa !56
  %17 = icmp slt i32 %16, 54
  br i1 %17, label %18, label %21

18:                                               ; preds = %3
  %19 = load i32, ptr %4, align 4, !tbaa !56
  %20 = add i32 %19, 8
  br label %22

21:                                               ; preds = %3
  br label %22

22:                                               ; preds = %21, %18
  %23 = phi i32 [ %20, %18 ], [ 54, %21 ]
  %24 = sdiv i32 %23, 9
  store i32 %24, ptr %7, align 4, !tbaa !56
  call void @llvm.lifetime.start.p0(i64 4, ptr %8) #24
  %25 = load i32, ptr %4, align 4, !tbaa !56
  %26 = icmp slt i32 %25, 54
  br i1 %26, label %27, label %28

27:                                               ; preds = %22
  br label %32

28:                                               ; preds = %22
  %29 = load i32, ptr %4, align 4, !tbaa !56
  %30 = sub i32 %29, 54
  %31 = add i32 %30, 511
  br label %32

32:                                               ; preds = %28, %27
  %33 = phi i32 [ 0, %27 ], [ %31, %28 ]
  %34 = sdiv i32 %33, 512
  store i32 %34, ptr %8, align 4, !tbaa !56
  call void @llvm.lifetime.start.p0(i64 8, ptr %9) #24
  %35 = load i32, ptr %6, align 4, !tbaa !56
  %36 = sext i32 %35 to i64
  %37 = call noalias nonnull ptr @ruby_xmalloc2(i64 noundef %36, i64 noundef 4) #27
  store ptr %37, ptr %9, align 8, !tbaa !139
  call void @llvm.lifetime.start.p0(i64 8, ptr %10) #24
  call void @llvm.lifetime.start.p0(i64 4, ptr %11) #24
  call void @llvm.lifetime.start.p0(i64 4, ptr %12) #24
  call void @llvm.lifetime.start.p0(i64 4, ptr %13) #24
  call void @llvm.lifetime.start.p0(i64 4, ptr %14) #24
  store i32 -1, ptr %14, align 4, !tbaa !56
  %38 = load ptr, ptr %9, align 8, !tbaa !139
  store ptr %38, ptr %10, align 8, !tbaa !139
  store i32 0, ptr %12, align 4, !tbaa !56
  br label %39

39:                                               ; preds = %76, %32
  %40 = load i32, ptr %12, align 4, !tbaa !56
  %41 = load i32, ptr %7, align 4, !tbaa !56
  %42 = icmp slt i32 %40, %41
  br i1 %42, label %43, label %79

43:                                               ; preds = %39
  store i32 0, ptr %11, align 4, !tbaa !56
  br label %44

44:                                               ; preds = %72, %43
  %45 = load i32, ptr %11, align 4, !tbaa !56
  %46 = icmp slt i32 %45, 9
  br i1 %46, label %47, label %75

47:                                               ; preds = %44
  call void @llvm.lifetime.start.p0(i64 4, ptr %15) #24
  %48 = load ptr, ptr %5, align 8, !tbaa !140
  %49 = getelementptr inbounds nuw %struct.succ_index_table, ptr %48, i32 0, i32 0
  %50 = load i32, ptr %12, align 4, !tbaa !56
  %51 = sext i32 %50 to i64
  %52 = getelementptr [6 x i64], ptr %49, i64 0, i64 %51
  %53 = load i64, ptr %52, align 8, !tbaa !17
  %54 = load i32, ptr %11, align 4, !tbaa !56
  %55 = mul i32 %54, 7
  %56 = zext i32 %55 to i64
  %57 = lshr i64 %53, %56
  %58 = trunc i64 %57 to i32
  %59 = and i32 %58, 127
  store i32 %59, ptr %15, align 4, !tbaa !56
  %60 = load i32, ptr %14, align 4, !tbaa !56
  %61 = load i32, ptr %15, align 4, !tbaa !56
  %62 = icmp ne i32 %60, %61
  br i1 %62, label %63, label %70

63:                                               ; preds = %47
  %64 = load i32, ptr %12, align 4, !tbaa !56
  %65 = mul i32 %64, 9
  %66 = load i32, ptr %11, align 4, !tbaa !56
  %67 = add i32 %65, %66
  %68 = load ptr, ptr %10, align 8, !tbaa !139
  %69 = getelementptr i32, ptr %68, i32 1
  store ptr %69, ptr %10, align 8, !tbaa !139
  store i32 %67, ptr %68, align 4, !tbaa !56
  br label %70

70:                                               ; preds = %63, %47
  %71 = load i32, ptr %15, align 4, !tbaa !56
  store i32 %71, ptr %14, align 4, !tbaa !56
  call void @llvm.lifetime.end.p0(i64 4, ptr %15) #24
  br label %72

72:                                               ; preds = %70
  %73 = load i32, ptr %11, align 4, !tbaa !56
  %74 = add i32 %73, 1
  store i32 %74, ptr %11, align 4, !tbaa !56
  br label %44, !llvm.loop !151

75:                                               ; preds = %44
  br label %76

76:                                               ; preds = %75
  %77 = load i32, ptr %12, align 4, !tbaa !56
  %78 = add i32 %77, 1
  store i32 %78, ptr %12, align 4, !tbaa !56
  br label %39, !llvm.loop !152

79:                                               ; preds = %39
  store i32 0, ptr %13, align 4, !tbaa !56
  br label %80

80:                                               ; preds = %128, %79
  %81 = load i32, ptr %13, align 4, !tbaa !56
  %82 = load i32, ptr %8, align 4, !tbaa !56
  %83 = icmp slt i32 %81, %82
  br i1 %83, label %84, label %131

84:                                               ; preds = %80
  store i32 0, ptr %12, align 4, !tbaa !56
  br label %85

85:                                               ; preds = %124, %84
  %86 = load i32, ptr %12, align 4, !tbaa !56
  %87 = icmp slt i32 %86, 8
  br i1 %87, label %88, label %127

88:                                               ; preds = %85
  store i32 0, ptr %11, align 4, !tbaa !56
  br label %89

89:                                               ; preds = %120, %88
  %90 = load i32, ptr %11, align 4, !tbaa !56
  %91 = icmp slt i32 %90, 64
  br i1 %91, label %92, label %123

92:                                               ; preds = %89
  %93 = load ptr, ptr %5, align 8, !tbaa !140
  %94 = getelementptr inbounds nuw %struct.succ_index_table, ptr %93, i32 0, i32 1
  %95 = load i32, ptr %13, align 4, !tbaa !56
  %96 = sext i32 %95 to i64
  %97 = getelementptr [0 x %struct.succ_dict_block], ptr %94, i64 0, i64 %96
  %98 = getelementptr inbounds nuw %struct.succ_dict_block, ptr %97, i32 0, i32 2
  %99 = load i32, ptr %12, align 4, !tbaa !56
  %100 = sext i32 %99 to i64
  %101 = getelementptr [8 x i64], ptr %98, i64 0, i64 %100
  %102 = load i64, ptr %101, align 8, !tbaa !17
  %103 = load i32, ptr %11, align 4, !tbaa !56
  %104 = zext i32 %103 to i64
  %105 = shl i64 1, %104
  %106 = and i64 %102, %105
  %107 = icmp ne i64 %106, 0
  br i1 %107, label %108, label %119

108:                                              ; preds = %92
  %109 = load i32, ptr %13, align 4, !tbaa !56
  %110 = mul i32 %109, 512
  %111 = load i32, ptr %12, align 4, !tbaa !56
  %112 = mul i32 %111, 64
  %113 = add i32 %110, %112
  %114 = load i32, ptr %11, align 4, !tbaa !56
  %115 = add i32 %113, %114
  %116 = add i32 %115, 54
  %117 = load ptr, ptr %10, align 8, !tbaa !139
  %118 = getelementptr i32, ptr %117, i32 1
  store ptr %118, ptr %10, align 8, !tbaa !139
  store i32 %116, ptr %117, align 4, !tbaa !56
  br label %119

119:                                              ; preds = %108, %92
  br label %120

120:                                              ; preds = %119
  %121 = load i32, ptr %11, align 4, !tbaa !56
  %122 = add i32 %121, 1
  store i32 %122, ptr %11, align 4, !tbaa !56
  br label %89, !llvm.loop !153

123:                                              ; preds = %89
  br label %124

124:                                              ; preds = %123
  %125 = load i32, ptr %12, align 4, !tbaa !56
  %126 = add i32 %125, 1
  store i32 %126, ptr %12, align 4, !tbaa !56
  br label %85, !llvm.loop !154

127:                                              ; preds = %85
  br label %128

128:                                              ; preds = %127
  %129 = load i32, ptr %13, align 4, !tbaa !56
  %130 = add i32 %129, 1
  store i32 %130, ptr %13, align 4, !tbaa !56
  br label %80, !llvm.loop !155

131:                                              ; preds = %80
  %132 = load ptr, ptr %9, align 8, !tbaa !139
  call void @llvm.lifetime.end.p0(i64 4, ptr %14) #24
  call void @llvm.lifetime.end.p0(i64 4, ptr %13) #24
  call void @llvm.lifetime.end.p0(i64 4, ptr %12) #24
  call void @llvm.lifetime.end.p0(i64 4, ptr %11) #24
  call void @llvm.lifetime.end.p0(i64 8, ptr %10) #24
  call void @llvm.lifetime.end.p0(i64 8, ptr %9) #24
  call void @llvm.lifetime.end.p0(i64 4, ptr %8) #24
  call void @llvm.lifetime.end.p0(i64 4, ptr %7) #24
  ret ptr %132
}

; Function Attrs: nounwind sspstrong uwtable
define hidden ptr @rb_iseq_insns_info_decode_positions(ptr noundef %0) #0 {
  %2 = alloca ptr, align 8
  %3 = alloca i32, align 4
  %4 = alloca i32, align 4
  %5 = alloca ptr, align 8
  store ptr %0, ptr %2, align 8, !tbaa !16
  call void @llvm.lifetime.start.p0(i64 4, ptr %3) #24
  %6 = load ptr, ptr %2, align 8, !tbaa !16
  %7 = getelementptr inbounds nuw %struct.rb_iseq_constant_body, ptr %6, i32 0, i32 5
  %8 = getelementptr inbounds nuw %struct.iseq_insn_info, ptr %7, i32 0, i32 2
  %9 = load i32, ptr %8, align 8, !tbaa !130
  store i32 %9, ptr %3, align 4, !tbaa !56
  call void @llvm.lifetime.start.p0(i64 4, ptr %4) #24
  %10 = load ptr, ptr %2, align 8, !tbaa !16
  %11 = getelementptr inbounds nuw %struct.rb_iseq_constant_body, ptr %10, i32 0, i32 1
  %12 = load i32, ptr %11, align 4, !tbaa !45
  store i32 %12, ptr %4, align 4, !tbaa !56
  call void @llvm.lifetime.start.p0(i64 8, ptr %5) #24
  %13 = load ptr, ptr %2, align 8, !tbaa !16
  %14 = getelementptr inbounds nuw %struct.rb_iseq_constant_body, ptr %13, i32 0, i32 5
  %15 = getelementptr inbounds nuw %struct.iseq_insn_info, ptr %14, i32 0, i32 3
  %16 = load ptr, ptr %15, align 8, !tbaa !40
  store ptr %16, ptr %5, align 8, !tbaa !140
  %17 = load i32, ptr %4, align 4, !tbaa !56
  %18 = load ptr, ptr %5, align 8, !tbaa !140
  %19 = load i32, ptr %3, align 4, !tbaa !56
  %20 = call ptr @succ_index_table_invert(i32 noundef %17, ptr noundef %18, i32 noundef %19)
  call void @llvm.lifetime.end.p0(i64 8, ptr %5) #24
  call void @llvm.lifetime.end.p0(i64 4, ptr %4) #24
  call void @llvm.lifetime.end.p0(i64 4, ptr %3) #24
  ret ptr %20
}