; Function Attrs: nounwind sspstrong uwtable
define hidden noalias nonnull ptr @rb_iseq_insns_info_decode_positions(ptr noundef readonly captures(none) %0) local_unnamed_addr #0 {
  %2 = getelementptr inbounds nuw i8, ptr %0, i64 128
  %3 = load i32, ptr %2, align 8, !tbaa !141
  %4 = getelementptr inbounds nuw i8, ptr %0, i64 4
  %5 = load i32, ptr %4, align 4, !tbaa !83
  %6 = getelementptr inbounds nuw i8, ptr %0, i64 136
  %7 = load ptr, ptr %6, align 8, !tbaa !79
  %8 = icmp sgt i32 %5, 53
  %9 = add nsw i32 %5, 8
  %10 = sdiv i32 %9, 9
  %11 = select i1 %8, i32 6, i32 %10
  %12 = add i32 %5, 457
  %13 = sdiv i32 %12, 512
  %14 = sext i32 %3 to i64
  %15 = tail call noalias nonnull ptr @ruby_xmalloc2(i64 noundef %14, i64 noundef 4) #22
  %16 = icmp sgt i32 %11, 0
  br i1 %16, label %.preheader45.preheader.i, label %.preheader44.i

.preheader45.preheader.i:                         ; preds = %1
  %wide.trip.count.i = zext nneg i32 %11 to i64
  br label %.preheader45.i

.preheader45.i:                                   ; preds = %33, %.preheader45.preheader.i
  %indvars.iv59.i = phi i64 [ 0, %.preheader45.preheader.i ], [ %indvars.iv.next60.i, %33 ]
  %.051.i = phi ptr [ %15, %.preheader45.preheader.i ], [ %.2.i, %33 ]
  %.03550.i = phi i32 [ -1, %.preheader45.preheader.i ], [ %27, %33 ]
  %17 = getelementptr [6 x i64], ptr %7, i64 0, i64 %indvars.iv59.i
  %18 = load i64, ptr %17, align 8, !tbaa !42
  %19 = mul nuw nsw i64 %indvars.iv59.i, 9
  br label %23

.preheader44.i:                                   ; preds = %33, %1
  %.0.lcssa.i = phi ptr [ %15, %1 ], [ %.2.i, %33 ]
  %20 = add i32 %5, -55
  %21 = icmp ult i32 %20, 2147483136
  br i1 %21, label %.preheader43.lr.ph.i, label %succ_index_table_invert.exit

.preheader43.lr.ph.i:                             ; preds = %.preheader44.i
  %22 = getelementptr i8, ptr %7, i64 64
  %smax.i = tail call i32 @llvm.smax.i32(i32 %13, i32 1)
  %wide.trip.count74.i = zext nneg i32 %smax.i to i64
  br label %.preheader43.i

23:                                               ; preds = %32, %.preheader45.i
  %indvars.iv.i = phi i64 [ 0, %.preheader45.i ], [ %indvars.iv.next.i, %32 ]
  %.148.i = phi ptr [ %.051.i, %.preheader45.i ], [ %.2.i, %32 ]
  %.13647.i = phi i32 [ %.03550.i, %.preheader45.i ], [ %27, %32 ]
  %24 = mul nuw nsw i64 %indvars.iv.i, 7
  %25 = lshr i64 %18, %24
  %26 = trunc i64 %25 to i32
  %27 = and i32 %26, 127
  %.not42.i = icmp eq i32 %.13647.i, %27
  br i1 %.not42.i, label %32, label %28

28:                                               ; preds = %23
  %29 = add nuw nsw i64 %indvars.iv.i, %19
  %30 = getelementptr i8, ptr %.148.i, i64 4
  %31 = trunc nuw i64 %29 to i32
  store i32 %31, ptr %.148.i, align 4, !tbaa !136
  br label %32

32:                                               ; preds = %28, %23
  %.2.i = phi ptr [ %30, %28 ], [ %.148.i, %23 ]
  %indvars.iv.next.i = add nuw nsw i64 %indvars.iv.i, 1
  %exitcond.not.i = icmp eq i64 %indvars.iv.next.i, 9
  br i1 %exitcond.not.i, label %33, label %23, !llvm.loop !155

33:                                               ; preds = %32
  %indvars.iv.next60.i = add nuw nsw i64 %indvars.iv59.i, 1
  %exitcond62.not.i = icmp eq i64 %indvars.iv.next60.i, %wide.trip.count.i
  br i1 %exitcond62.not.i, label %.preheader44.i, label %.preheader45.i, !llvm.loop !156

.preheader43.i:                                   ; preds = %50, %.preheader43.lr.ph.i
  %indvars.iv71.i = phi i64 [ 0, %.preheader43.lr.ph.i ], [ %indvars.iv.next72.i, %50 ]
  %.357.i = phi ptr [ %.0.lcssa.i, %.preheader43.lr.ph.i ], [ %.6.i, %50 ]
  %.idx.i = mul nuw nsw i64 %indvars.iv71.i, 80
  %34 = getelementptr i8, ptr %22, i64 %.idx.i
  %35 = shl i64 %indvars.iv71.i, 9
  %36 = or disjoint i64 %35, 54
  br label %.preheader.i

.preheader.i:                                     ; preds = %49, %.preheader43.i
  %indvars.iv67.i = phi i64 [ 0, %.preheader43.i ], [ %indvars.iv.next68.i, %49 ]
  %.455.i = phi ptr [ %.357.i, %.preheader43.i ], [ %.6.i, %49 ]
  %37 = getelementptr [8 x i64], ptr %34, i64 0, i64 %indvars.iv67.i
  %38 = load i64, ptr %37, align 8, !tbaa !42
  %39 = shl nuw nsw i64 %indvars.iv67.i, 6
  %40 = add nuw nsw i64 %36, %39
  br label %41

41:                                               ; preds = %48, %.preheader.i
  %indvars.iv63.i = phi i64 [ 0, %.preheader.i ], [ %indvars.iv.next64.i, %48 ]
  %.553.i = phi ptr [ %.455.i, %.preheader.i ], [ %.6.i, %48 ]
  %42 = shl nuw i64 1, %indvars.iv63.i
  %43 = and i64 %42, %38
  %.not.i = icmp eq i64 %43, 0
  br i1 %.not.i, label %48, label %44

44:                                               ; preds = %41
  %45 = add nuw nsw i64 %40, %indvars.iv63.i
  %46 = getelementptr i8, ptr %.553.i, i64 4
  %47 = trunc nuw nsw i64 %45 to i32
  store i32 %47, ptr %.553.i, align 4, !tbaa !136
  br label %48

48:                                               ; preds = %44, %41
  %.6.i = phi ptr [ %46, %44 ], [ %.553.i, %41 ]
  %indvars.iv.next64.i = add nuw nsw i64 %indvars.iv63.i, 1
  %exitcond66.not.i = icmp eq i64 %indvars.iv.next64.i, 64
  br i1 %exitcond66.not.i, label %49, label %41, !llvm.loop !157

49:                                               ; preds = %48
  %indvars.iv.next68.i = add nuw nsw i64 %indvars.iv67.i, 1
  %exitcond70.not.i = icmp eq i64 %indvars.iv.next68.i, 8
  br i1 %exitcond70.not.i, label %50, label %.preheader.i, !llvm.loop !158

50:                                               ; preds = %49
  %indvars.iv.next72.i = add nuw nsw i64 %indvars.iv71.i, 1
  %exitcond75.not.i = icmp eq i64 %indvars.iv.next72.i, %wide.trip.count74.i
  br i1 %exitcond75.not.i, label %succ_index_table_invert.exit, label %.preheader43.i, !llvm.loop !159

succ_index_table_invert.exit:                     ; preds = %50, %.preheader44.i
  ret ptr %15
}